target datalayout = "e-m:e-p270:32:32-p271:32:32-p272:64:64-i64:64-i128:128-f80:128-n8:16:32:64-S128"
target triple = "x86_64-pc-linux-gnu"

%struct.ems_msg_s = type { i32, i32, i32, i32, i32, i32, i32, i32, [3 x i8], i32, i32, [64 x i8] }
%struct.wtap_rec = type { i32, i32, i32, %struct.nstime_t, i32, %struct.nstime_t, i8, %union.anon, ptr, i8, %struct.Buffer, %struct.Buffer }
%struct.nstime_t = type { i64, i32 }
%union.anon = type { %struct.wtap_packet_header }
%struct.wtap_packet_header = type { i32, i32, i32, i32, %union.wtap_pseudo_header }
%union.wtap_pseudo_header = type { %struct.erf_mc_phdr }
%struct.erf_mc_phdr = type { %struct.erf_phdr, [16 x %struct.erf_ehdr], %union.anon.1 }
%struct.erf_phdr = type { i64, i8, i8, i16, i16, i16 }
%struct.erf_ehdr = type { i64 }
%union.anon.1 = type { i32 }
%struct.Buffer = type { ptr, i64, i64, i64 }

@.str.3 = private unnamed_addr constant [36 x i8] c"%04u-%02u-%02uT%02u:%02u:%02u.%06uZ\00", align 1

; Function Attrs: null_pointer_is_valid sspstrong uwtable
define internal zeroext i1 @ems_read_message(ptr noundef %0, ptr noundef %1, ptr noundef %2, ptr noundef %3) #0 {
  %5 = alloca i1, align 1
  %6 = alloca ptr, align 8
  %7 = alloca ptr, align 8
  %8 = alloca ptr, align 8
  %9 = alloca ptr, align 8
  %10 = alloca [1024 x i8], align 16
  %11 = alloca %struct.ems_msg_s, align 4
  %12 = alloca ptr, align 8
  %13 = alloca i32, align 4
  %14 = alloca [32 x i8], align 16
  store ptr %0, ptr %6, align 8
  store ptr %1, ptr %7, align 8
  store ptr %2, ptr %8, align 8
  store ptr %3, ptr %9, align 8
  call void @llvm.lifetime.start.p0(i64 1024, ptr %10) #6
  call void @llvm.lifetime.start.p0(i64 108, ptr %11) #6
  call void @llvm.memset.p0.i64(ptr align 4 %11, i8 0, i64 108, i1 false)
  call void @llvm.lifetime.start.p0(i64 8, ptr %12) #6
  %15 = getelementptr inbounds [1024 x i8], ptr %10, i64 0, i64 0
  %16 = load ptr, ptr %6, align 8
  %17 = call ptr @file_getsp(ptr noundef %15, i32 noundef 1024, ptr noundef %16)
  store ptr %17, ptr %12, align 8
  %18 = load ptr, ptr %12, align 8
  %19 = icmp ne ptr %18, null
  br i1 %19, label %25, label %20

20:                                               ; preds = %4
  %21 = load ptr, ptr %6, align 8
  %22 = load ptr, ptr %9, align 8
  %23 = call i32 @file_error(ptr noundef %21, ptr noundef %22)
  %24 = load ptr, ptr %8, align 8
  store i32 %23, ptr %24, align 4
  store i1 false, ptr %5, align 1
  store i32 1, ptr %13, align 4
  br label %83

25:                                               ; preds = %4
  %26 = call zeroext i1 @parse(ptr noundef %10, ptr noundef %11)
  br i1 %26, label %27, label %82

27:                                               ; preds = %25
  call void @llvm.lifetime.start.p0(i64 32, ptr %14) #6
  %28 = load ptr, ptr %7, align 8
  %29 = getelementptr inbounds nuw %struct.wtap_rec, ptr %28, i32 0, i32 11
  %30 = getelementptr inbounds [1024 x i8], ptr %10, i64 0, i64 0
  %31 = load ptr, ptr %12, align 8
  %32 = getelementptr inbounds [1024 x i8], ptr %10, i64 0, i64 0
  %33 = ptrtoint ptr %31 to i64
  %34 = ptrtoint ptr %32 to i64
  %35 = sub i64 %33, %34
  call void @ws_buffer_append(ptr noundef %29, ptr noundef %30, i64 noundef %35)
  %36 = load ptr, ptr %7, align 8
  %37 = getelementptr inbounds nuw %struct.wtap_rec, ptr %36, i32 0, i32 0
  store i32 0, ptr %37, align 8
  %38 = call ptr @wtap_block_create(i32 noundef 5)
  %39 = load ptr, ptr %7, align 8
  %40 = getelementptr inbounds nuw %struct.wtap_rec, ptr %39, i32 0, i32 8
  store ptr %38, ptr %40, align 8
  %41 = load ptr, ptr %7, align 8
  %42 = getelementptr inbounds nuw %struct.wtap_rec, ptr %41, i32 0, i32 1
  store i32 1, ptr %42, align 4
  %43 = load ptr, ptr %12, align 8
  %44 = getelementptr inbounds [1024 x i8], ptr %10, i64 0, i64 0
  %45 = ptrtoint ptr %43 to i64
  %46 = ptrtoint ptr %44 to i64
  %47 = sub i64 %45, %46
  %48 = trunc i64 %47 to i32
  %49 = load ptr, ptr %7, align 8
  %50 = getelementptr inbounds nuw %struct.wtap_rec, ptr %49, i32 0, i32 7
  %51 = getelementptr inbounds nuw %struct.wtap_packet_header, ptr %50, i32 0, i32 1
  store i32 %48, ptr %51, align 4
  %52 = load ptr, ptr %12, align 8
  %53 = getelementptr inbounds [1024 x i8], ptr %10, i64 0, i64 0
  %54 = ptrtoint ptr %52 to i64
  %55 = ptrtoint ptr %53 to i64
  %56 = sub i64 %54, %55
  %57 = trunc i64 %56 to i32
  %58 = load ptr, ptr %7, align 8
  %59 = getelementptr inbounds nuw %struct.wtap_rec, ptr %58, i32 0, i32 7
  %60 = getelementptr inbounds nuw %struct.wtap_packet_header, ptr %59, i32 0, i32 0
  store i32 %57, ptr %60, align 8
  %61 = getelementptr inbounds [32 x i8], ptr %14, i64 0, i64 0
  %62 = getelementptr inbounds nuw %struct.ems_msg_s, ptr %11, i32 0, i32 1
  %63 = load i32, ptr %62, align 4
  %64 = add i32 %63, 2000
  %65 = getelementptr inbounds nuw %struct.ems_msg_s, ptr %11, i32 0, i32 2
  %66 = load i32, ptr %65, align 4
  %67 = getelementptr inbounds nuw %struct.ems_msg_s, ptr %11, i32 0, i32 3
  %68 = load i32, ptr %67, align 4
  %69 = getelementptr inbounds nuw %struct.ems_msg_s, ptr %11, i32 0, i32 4
  %70 = load i32, ptr %69, align 4
  %71 = getelementptr inbounds nuw %struct.ems_msg_s, ptr %11, i32 0, i32 5
  %72 = load i32, ptr %71, align 4
  %73 = getelementptr inbounds nuw %struct.ems_msg_s, ptr %11, i32 0, i32 6
  %74 = load i32, ptr %73, align 4
  %75 = getelementptr inbounds nuw %struct.ems_msg_s, ptr %11, i32 0, i32 7
  %76 = load i32, ptr %75, align 4
  %77 = call i32 (ptr, i64, i32, i64, ptr, ...) @__snprintf_chk(ptr noundef %61, i64 noundef 32, i32 noundef 2, i64 noundef 32, ptr noundef @.str.3, i32 noundef %64, i32 noundef %66, i32 noundef %68, i32 noundef %70, i32 noundef %72, i32 noundef %74, i32 noundef %76)
  %78 = load ptr, ptr %7, align 8
  %79 = getelementptr inbounds nuw %struct.wtap_rec, ptr %78, i32 0, i32 3
  %80 = getelementptr inbounds [32 x i8], ptr %14, i64 0, i64 0
  %81 = call ptr @iso8601_to_nstime(ptr noundef %79, ptr noundef %80, i32 noundef 0)
  store i1 true, ptr %5, align 1
  store i32 1, ptr %13, align 4
  call void @llvm.lifetime.end.p0(i64 32, ptr %14) #6
  br label %83

82:                                               ; preds = %25
  store i1 false, ptr %5, align 1
  store i32 1, ptr %13, align 4
  br label %83

83:                                               ; preds = %82, %27, %20
  call void @llvm.lifetime.end.p0(i64 8, ptr %12) #6
  call void @llvm.lifetime.end.p0(i64 108, ptr %11) #6
  call void @llvm.lifetime.end.p0(i64 1024, ptr %10) #6
  %84 = load i1, ptr %5, align 1
  ret i1 %84
}