; Function Attrs: null_pointer_is_valid sspstrong uwtable
define internal fastcc noundef zeroext i1 @ems_read_message(ptr noundef %0, ptr noundef %1, ptr noundef writeonly captures(none) %2, ptr noundef %3) unnamed_addr #0 {
  %5 = alloca [1024 x i8], align 16
  %6 = alloca %struct.ems_msg_s, align 4
  %7 = alloca [32 x i8], align 16
  call void @llvm.lifetime.start.p0(i64 1024, ptr nonnull %5) #7
  call void @llvm.lifetime.start.p0(i64 108, ptr nonnull %6) #7
  call void @llvm.memset.p0.i64(ptr noundef nonnull align 4 dereferenceable(108) %6, i8 0, i64 108, i1 false)
  %8 = call ptr @file_getsp(ptr noundef nonnull %5, i32 noundef 1024, ptr noundef %0)
  %.not = icmp eq ptr %8, null
  br i1 %.not, label %9, label %11

9:                                                ; preds = %4
  %10 = call i32 @file_error(ptr noundef %0, ptr noundef %3)
  store i32 %10, ptr %2, align 4
  br label %42

11:                                               ; preds = %4
  %12 = call fastcc zeroext i1 @parse(ptr noundef nonnull %5, ptr noundef nonnull %6)
  br i1 %12, label %13, label %42

13:                                               ; preds = %11
  call void @llvm.lifetime.start.p0(i64 32, ptr nonnull %7) #7
  %14 = getelementptr inbounds nuw i8, ptr %1, i64 280
  %15 = ptrtoint ptr %8 to i64
  %16 = ptrtoint ptr %5 to i64
  %17 = sub i64 %15, %16
  call void @ws_buffer_append(ptr noundef nonnull %14, ptr noundef nonnull %5, i64 noundef %17)
  store i32 0, ptr %1, align 8
  %18 = call ptr @wtap_block_create(i32 noundef 5)
  %19 = getelementptr inbounds nuw i8, ptr %1, i64 232
  store ptr %18, ptr %19, align 8
  %20 = getelementptr inbounds nuw i8, ptr %1, i64 4
  store i32 1, ptr %20, align 4
  %21 = trunc i64 %17 to i32
  %22 = getelementptr inbounds nuw i8, ptr %1, i64 64
  %23 = getelementptr inbounds nuw i8, ptr %1, i64 68
  store i32 %21, ptr %23, align 4
  store i32 %21, ptr %22, align 8
  %24 = getelementptr inbounds nuw i8, ptr %6, i64 4
  %25 = load i32, ptr %24, align 4
  %26 = add i32 %25, 2000
  %27 = getelementptr inbounds nuw i8, ptr %6, i64 8
  %28 = load i32, ptr %27, align 4
  %29 = getelementptr inbounds nuw i8, ptr %6, i64 12
  %30 = load i32, ptr %29, align 4
  %31 = getelementptr inbounds nuw i8, ptr %6, i64 16
  %32 = load i32, ptr %31, align 4
  %33 = getelementptr inbounds nuw i8, ptr %6, i64 20
  %34 = load i32, ptr %33, align 4
  %35 = getelementptr inbounds nuw i8, ptr %6, i64 24
  %36 = load i32, ptr %35, align 4
  %37 = getelementptr inbounds nuw i8, ptr %6, i64 28
  %38 = load i32, ptr %37, align 4
  %39 = call i32 (ptr, i64, i32, i64, ptr, ...) @__snprintf_chk(ptr noundef nonnull %7, i64 noundef 32, i32 noundef 2, i64 noundef 32, ptr noundef nonnull @.str.3, i32 noundef %26, i32 noundef %28, i32 noundef %30, i32 noundef %32, i32 noundef %34, i32 noundef %36, i32 noundef %38)
  %40 = getelementptr inbounds nuw i8, ptr %1, i64 16
  %41 = call ptr @iso8601_to_nstime(ptr noundef nonnull %40, ptr noundef nonnull %7, i32 noundef 0)
  call void @llvm.lifetime.end.p0(i64 32, ptr nonnull %7) #7
  br label %42

42:                                               ; preds = %11, %13, %9
  %.0 = phi i1 [ true, %13 ], [ false, %9 ], [ false, %11 ]
  call void @llvm.lifetime.end.p0(i64 108, ptr nonnull %6) #7
  call void @llvm.lifetime.end.p0(i64 1024, ptr nonnull %5) #7
  ret i1 %.0
}